; Function Attrs: mustprogress uwtable
define noundef zeroext i1 @_ZN18llama_model_loader7get_keyI18llama_pooling_typeEEb6llm_kvRT_b(ptr noundef nonnull align 8 dereferenceable(320) %0, i32 noundef %1, ptr noundef nonnull writeonly align 4 captures(none) dereferenceable(4) %2, i1 noundef zeroext %3) local_unnamed_addr #1 align 2 personality ptr @__gxx_personality_v0 {
  %5 = alloca %"class.std::__cxx11::basic_string", align 8
  %6 = alloca i32, align 4
  call void @llvm.lifetime.start.p0(i64 4, ptr nonnull %6) #32
  call void @llvm.lifetime.start.p0(i64 32, ptr nonnull %5) #32
  %7 = getelementptr inbounds nuw i8, ptr %0, i64 264
  call void @_ZNK6LLM_KVclB5cxx11E6llm_kv(ptr dead_on_unwind nonnull writable sret(%"class.std::__cxx11::basic_string") align 8 %5, ptr noundef nonnull align 8 dereferenceable(16) %7, i32 noundef %1)
  %8 = invoke noundef zeroext i1 @_ZN18llama_model_loader7get_keyIjEEbRKNSt7__cxx1112basic_stringIcSt11char_traitsIcESaIcEEERT_b(ptr noundef nonnull align 8 dereferenceable(320) %0, ptr noundef nonnull align 8 dereferenceable(32) %5, ptr noundef nonnull align 4 dereferenceable(4) %6, i1 noundef zeroext %3)
          to label %9 unwind label %18

9:                                                ; preds = %4
  %10 = load ptr, ptr %5, align 8, !tbaa !3
  %11 = getelementptr inbounds nuw i8, ptr %5, i64 16
  %12 = icmp eq ptr %10, %11
  br i1 %12, label %_ZNKSt7__cxx1112basic_stringIcSt11char_traitsIcESaIcEE11_M_is_localEv.exit.thread.i.i.i, label %_ZNKSt7__cxx1112basic_stringIcSt11char_traitsIcESaIcEE11_M_is_localEv.exit.i.i.i

_ZNKSt7__cxx1112basic_stringIcSt11char_traitsIcESaIcEE11_M_is_localEv.exit.thread.i.i.i: ; preds = %9
  %13 = getelementptr inbounds nuw i8, ptr %5, i64 8
  %14 = load i64, ptr %13, align 8, !tbaa !11
  %15 = icmp ult i64 %14, 16
  call void @llvm.assume(i1 %15)
  br label %_ZN18llama_model_loader7get_keyIjEEb6llm_kvRT_b.exit

_ZNKSt7__cxx1112basic_stringIcSt11char_traitsIcESaIcEE11_M_is_localEv.exit.i.i.i: ; preds = %9
  %16 = load i64, ptr %11, align 8, !tbaa !12
  %17 = add i64 %16, 1
  call void @_ZdlPvm(ptr noundef %10, i64 noundef %17) #33
  br label %_ZN18llama_model_loader7get_keyIjEEb6llm_kvRT_b.exit

18:                                               ; preds = %4
  %19 = landingpad { ptr, i32 }
          cleanup
  %20 = load ptr, ptr %5, align 8, !tbaa !3
  %21 = getelementptr inbounds nuw i8, ptr %5, i64 16
  %22 = icmp eq ptr %20, %21
  br i1 %22, label %_ZNKSt7__cxx1112basic_stringIcSt11char_traitsIcESaIcEE11_M_is_localEv.exit.thread.i.i6.i, label %_ZNKSt7__cxx1112basic_stringIcSt11char_traitsIcESaIcEE11_M_is_localEv.exit.i.i5.i

_ZNKSt7__cxx1112basic_stringIcSt11char_traitsIcESaIcEE11_M_is_localEv.exit.thread.i.i6.i: ; preds = %18
  %23 = getelementptr inbounds nuw i8, ptr %5, i64 8
  %24 = load i64, ptr %23, align 8, !tbaa !11
  %25 = icmp ult i64 %24, 16
  call void @llvm.assume(i1 %25)
  br label %_ZNSt7__cxx1112basic_stringIcSt11char_traitsIcESaIcEED2Ev.exit7.i

_ZNKSt7__cxx1112basic_stringIcSt11char_traitsIcESaIcEE11_M_is_localEv.exit.i.i5.i: ; preds = %18
  %26 = load i64, ptr %21, align 8, !tbaa !12
  %27 = add i64 %26, 1
  call void @_ZdlPvm(ptr noundef %20, i64 noundef %27) #33
  br label %_ZNSt7__cxx1112basic_stringIcSt11char_traitsIcESaIcEED2Ev.exit7.i

_ZNSt7__cxx1112basic_stringIcSt11char_traitsIcESaIcEED2Ev.exit7.i: ; preds = %_ZNKSt7__cxx1112basic_stringIcSt11char_traitsIcESaIcEE11_M_is_localEv.exit.i.i5.i, %_ZNKSt7__cxx1112basic_stringIcSt11char_traitsIcESaIcEE11_M_is_localEv.exit.thread.i.i6.i
  call void @llvm.lifetime.end.p0(i64 32, ptr nonnull %5) #32
  resume { ptr, i32 } %19

_ZN18llama_model_loader7get_keyIjEEb6llm_kvRT_b.exit: ; preds = %_ZNKSt7__cxx1112basic_stringIcSt11char_traitsIcESaIcEE11_M_is_localEv.exit.thread.i.i.i, %_ZNKSt7__cxx1112basic_stringIcSt11char_traitsIcESaIcEE11_M_is_localEv.exit.i.i.i
  call void @llvm.lifetime.end.p0(i64 32, ptr nonnull %5) #32
  %28 = load i32, ptr %6, align 4
  %storemerge = select i1 %8, i32 %28, i32 -1
  store i32 %storemerge, ptr %2, align 4, !tbaa !26
  call void @llvm.lifetime.end.p0(i64 4, ptr nonnull %6) #32
  ret i1 %8
}